target datalayout = "e-m:e-p270:32:32-p271:32:32-p272:64:64-i64:64-i128:128-f80:128-n8:16:32:64-S128"
target triple = "x86_64-pc-linux-gnu"

%"class.std::basic_istream" = type { ptr, i64, %"class.std::basic_ios" }
%"class.std::basic_ios" = type { %"class.std::ios_base", ptr, i8, i8, ptr, ptr, ptr, ptr }
%"class.std::ios_base" = type { ptr, i64, i64, i32, i32, i32, ptr, %"struct.std::ios_base::_Words", [8 x %"struct.std::ios_base::_Words"], i32, ptr, %"class.std::locale" }
%"struct.std::ios_base::_Words" = type { ptr, i64 }
%"class.std::locale" = type { ptr }
%"class.std::basic_ostream" = type { ptr, %"class.std::basic_ios" }
%class.V3LexerBase = type <{ %class.FlexLexer.base, i32, i32, [4 x i8], ptr, %"class.std::basic_istream", %"class.std::basic_ostream", i8, [3 x i8], i32, ptr, i32, i32, i32, [4 x i8], i64, i64, ptr, i32, [4 x i8], ptr, ptr, ptr, ptr, ptr, i32, i32, i32, i32, i32, i32, i32, [4 x i8] }>
%class.FlexLexer.base = type <{ ptr, ptr, i32, i32, i32 }>
%struct.yy_buffer_state = type { ptr, ptr, ptr, i32, i32, i32, i32, i32, i32, i32, i32, i32 }

; Function Attrs: mustprogress nounwind uwtable
define dso_local void @_Z6yyfreePv(ptr noundef %0) #4 {
  %2 = alloca ptr, align 8
  store ptr %0, ptr %2, align 8
  %3 = load ptr, ptr %2, align 8
  call void @free(ptr noundef %3) #3
  ret void
}

; Function Attrs: mustprogress uwtable
define dso_local void @_ZN11V3LexerBase16yy_delete_bufferEP15yy_buffer_state(ptr noundef nonnull align 8 dereferenceable(732) %0, ptr noundef %1) unnamed_addr #5 align 2 {
  %3 = alloca ptr, align 8
  %4 = alloca ptr, align 8
  store ptr %0, ptr %3, align 8
  store ptr %1, ptr %4, align 8
  %5 = load ptr, ptr %3, align 8
  %6 = load ptr, ptr %4, align 8
  %7 = icmp ne ptr %6, null
  br i1 %7, label %9, label %8

8:                                                ; preds = %2
  br label %42

9:                                                ; preds = %2
  %10 = load ptr, ptr %4, align 8
  %11 = getelementptr inbounds %class.V3LexerBase, ptr %5, i32 0, i32 17
  %12 = load ptr, ptr %11, align 8
  %13 = icmp ne ptr %12, null
  br i1 %13, label %14, label %21

14:                                               ; preds = %9
  %15 = getelementptr inbounds %class.V3LexerBase, ptr %5, i32 0, i32 17
  %16 = load ptr, ptr %15, align 8
  %17 = getelementptr inbounds %class.V3LexerBase, ptr %5, i32 0, i32 15
  %18 = load i64, ptr %17, align 8
  %19 = getelementptr inbounds ptr, ptr %16, i64 %18
  %20 = load ptr, ptr %19, align 8
  br label %22

21:                                               ; preds = %9
  br label %22

22:                                               ; preds = %21, %14
  %23 = phi ptr [ %20, %14 ], [ null, %21 ]
  %24 = icmp eq ptr %10, %23
  br i1 %24, label %25, label %31

25:                                               ; preds = %22
  %26 = getelementptr inbounds %class.V3LexerBase, ptr %5, i32 0, i32 17
  %27 = load ptr, ptr %26, align 8
  %28 = getelementptr inbounds %class.V3LexerBase, ptr %5, i32 0, i32 15
  %29 = load i64, ptr %28, align 8
  %30 = getelementptr inbounds ptr, ptr %27, i64 %29
  store ptr null, ptr %30, align 8
  br label %31

31:                                               ; preds = %25, %22
  %32 = load ptr, ptr %4, align 8
  %33 = getelementptr inbounds %struct.yy_buffer_state, ptr %32, i32 0, i32 5
  %34 = load i32, ptr %33, align 8
  %35 = icmp ne i32 %34, 0
  br i1 %35, label %36, label %40

36:                                               ; preds = %31
  %37 = load ptr, ptr %4, align 8
  %38 = getelementptr inbounds %struct.yy_buffer_state, ptr %37, i32 0, i32 1
  %39 = load ptr, ptr %38, align 8
  call void @_Z6yyfreePv(ptr noundef %39)
  br label %40

40:                                               ; preds = %36, %31
  %41 = load ptr, ptr %4, align 8
  call void @_Z6yyfreePv(ptr noundef %41)
  br label %42

42:                                               ; preds = %40, %8
  ret void
}